; Function Attrs: mustprogress nounwind uwtable
define noundef nonnull align 8 dereferenceable(192) ptr @_ZN32pxrInternal_v0_24__pxrReserved__33UsdImagingUsdRenderSettingsSchema7Builder27SetAspectRatioConformPolicyERKSt10shared_ptrINS_24HdTypedSampledDataSourceINS_7TfTokenEEEE(ptr noundef nonnull returned align 8 dereferenceable(192) %0, ptr nocapture noundef nonnull readonly align 8 dereferenceable(16) %1) local_unnamed_addr #0 align 2 personality ptr @__gxx_personality_v0 {
  %3 = getelementptr inbounds nuw i8, ptr %0, i64 32
  %4 = load ptr, ptr %1, align 8
  store ptr %4, ptr %3, align 8
  %5 = getelementptr inbounds i8, ptr %0, i64 40
  %6 = getelementptr inbounds nuw i8, ptr %1, i64 8
  %7 = load ptr, ptr %6, align 8
  %8 = load ptr, ptr %5, align 8
  %.not.i.i.i = icmp eq ptr %7, %8
  br i1 %.not.i.i.i, label %_ZNSt10shared_ptrIN32pxrInternal_v0_24__pxrReserved__24HdTypedSampledDataSourceINS0_7TfTokenEEEEaSERKS4_.exit, label %9

9:                                                ; preds = %2
  %.not7.i.i.i = icmp eq ptr %7, null
  br i1 %.not7.i.i.i, label %_ZNSt16_Sp_counted_baseILN9__gnu_cxx12_Lock_policyE2EE15_M_add_ref_copyEv.exit.i.i.i, label %10

10:                                               ; preds = %9
  %11 = getelementptr inbounds nuw i8, ptr %7, i64 8
  %12 = load i8, ptr @__libc_single_threaded, align 1
  %.not.i.i.i.i = icmp eq i8 %12, 0
  br i1 %.not.i.i.i.i, label %16, label %13

13:                                               ; preds = %10
  %14 = load i32, ptr %11, align 4
  %15 = add nsw i32 %14, 1
  store i32 %15, ptr %11, align 4
  br label %_ZNSt16_Sp_counted_baseILN9__gnu_cxx12_Lock_policyE2EE15_M_add_ref_copyEv.exitthread-pre-split.i.i.i

16:                                               ; preds = %10
  %17 = atomicrmw volatile add ptr %11, i32 1 acq_rel, align 4
  br label %_ZNSt16_Sp_counted_baseILN9__gnu_cxx12_Lock_policyE2EE15_M_add_ref_copyEv.exitthread-pre-split.i.i.i

_ZNSt16_Sp_counted_baseILN9__gnu_cxx12_Lock_policyE2EE15_M_add_ref_copyEv.exitthread-pre-split.i.i.i: ; preds = %16, %13
  %.pr.i.i.i = load ptr, ptr %5, align 8
  br label %_ZNSt16_Sp_counted_baseILN9__gnu_cxx12_Lock_policyE2EE15_M_add_ref_copyEv.exit.i.i.i

_ZNSt16_Sp_counted_baseILN9__gnu_cxx12_Lock_policyE2EE15_M_add_ref_copyEv.exit.i.i.i: ; preds = %_ZNSt16_Sp_counted_baseILN9__gnu_cxx12_Lock_policyE2EE15_M_add_ref_copyEv.exitthread-pre-split.i.i.i, %9
  %18 = phi ptr [ %.pr.i.i.i, %_ZNSt16_Sp_counted_baseILN9__gnu_cxx12_Lock_policyE2EE15_M_add_ref_copyEv.exitthread-pre-split.i.i.i ], [ %8, %9 ]
  %.not8.i.i.i = icmp eq ptr %18, null
  br i1 %.not8.i.i.i, label %_ZNSt16_Sp_counted_baseILN9__gnu_cxx12_Lock_policyE2EE10_M_releaseEv.exit.i.i.i, label %19

19:                                               ; preds = %_ZNSt16_Sp_counted_baseILN9__gnu_cxx12_Lock_policyE2EE15_M_add_ref_copyEv.exit.i.i.i
  %20 = getelementptr inbounds nuw i8, ptr %18, i64 8
  %21 = load atomic i64, ptr %20 acquire, align 8
  %22 = icmp eq i64 %21, 4294967297
  %23 = trunc i64 %21 to i32
  br i1 %22, label %24, label %29

24:                                               ; preds = %19
  store i32 0, ptr %20, align 8
  %25 = getelementptr inbounds nuw i8, ptr %18, i64 12
  store i32 0, ptr %25, align 4
  %26 = load ptr, ptr %18, align 8
  %27 = getelementptr inbounds i8, ptr %26, i64 16
  %28 = load ptr, ptr %27, align 8
  tail call void %28(ptr noundef nonnull align 8 dereferenceable(16) %18) #12
  br label %_ZNSt16_Sp_counted_baseILN9__gnu_cxx12_Lock_policyE2EE24_M_release_last_use_coldEv.exit.sink.split.i.i.i.i

29:                                               ; preds = %19
  %30 = load i8, ptr @__libc_single_threaded, align 1
  %.not.i9.i.i.i = icmp eq i8 %30, 0
  br i1 %.not.i9.i.i.i, label %33, label %31

31:                                               ; preds = %29
  %32 = add nsw i32 %23, -1
  store i32 %32, ptr %20, align 4
  br label %35

33:                                               ; preds = %29
  %34 = atomicrmw volatile add ptr %20, i32 -1 acq_rel, align 4
  br label %35

35:                                               ; preds = %33, %31
  %.0.i.i.i.i = phi i32 [ %23, %31 ], [ %34, %33 ]
  %36 = icmp eq i32 %.0.i.i.i.i, 1
  br i1 %36, label %37, label %_ZNSt16_Sp_counted_baseILN9__gnu_cxx12_Lock_policyE2EE10_M_releaseEv.exit.i.i.i

37:                                               ; preds = %35
  %38 = load ptr, ptr %18, align 8
  %39 = getelementptr inbounds i8, ptr %38, i64 16
  %40 = load ptr, ptr %39, align 8
  tail call void %40(ptr noundef nonnull align 8 dereferenceable(16) %18) #12
  %41 = getelementptr inbounds nuw i8, ptr %18, i64 12
  %42 = load i8, ptr @__libc_single_threaded, align 1
  %.not.i.i.i.i.i.i = icmp eq i8 %42, 0
  br i1 %.not.i.i.i.i.i.i, label %46, label %43

43:                                               ; preds = %37
  %44 = load i32, ptr %41, align 4
  %45 = add nsw i32 %44, -1
  store i32 %45, ptr %41, align 4
  br label %48

46:                                               ; preds = %37
  %47 = atomicrmw volatile add ptr %41, i32 -1 acq_rel, align 4
  br label %48

48:                                               ; preds = %46, %43
  %.0.i.i.i.i.i.i = phi i32 [ %44, %43 ], [ %47, %46 ]
  %49 = icmp eq i32 %.0.i.i.i.i.i.i, 1
  br i1 %49, label %_ZNSt16_Sp_counted_baseILN9__gnu_cxx12_Lock_policyE2EE24_M_release_last_use_coldEv.exit.sink.split.i.i.i.i, label %_ZNSt16_Sp_counted_baseILN9__gnu_cxx12_Lock_policyE2EE10_M_releaseEv.exit.i.i.i

_ZNSt16_Sp_counted_baseILN9__gnu_cxx12_Lock_policyE2EE24_M_release_last_use_coldEv.exit.sink.split.i.i.i.i: ; preds = %48, %24
  %50 = load ptr, ptr %18, align 8
  %51 = getelementptr inbounds i8, ptr %50, i64 24
  %52 = load ptr, ptr %51, align 8
  tail call void %52(ptr noundef nonnull align 8 dereferenceable(16) %18) #12
  br label %_ZNSt16_Sp_counted_baseILN9__gnu_cxx12_Lock_policyE2EE10_M_releaseEv.exit.i.i.i

_ZNSt16_Sp_counted_baseILN9__gnu_cxx12_Lock_policyE2EE10_M_releaseEv.exit.i.i.i: ; preds = %_ZNSt16_Sp_counted_baseILN9__gnu_cxx12_Lock_policyE2EE24_M_release_last_use_coldEv.exit.sink.split.i.i.i.i, %48, %35, %_ZNSt16_Sp_counted_baseILN9__gnu_cxx12_Lock_policyE2EE15_M_add_ref_copyEv.exit.i.i.i
  store ptr %7, ptr %5, align 8
  br label %_ZNSt10shared_ptrIN32pxrInternal_v0_24__pxrReserved__24HdTypedSampledDataSourceINS0_7TfTokenEEEEaSERKS4_.exit

_ZNSt10shared_ptrIN32pxrInternal_v0_24__pxrReserved__24HdTypedSampledDataSourceINS0_7TfTokenEEEEaSERKS4_.exit: ; preds = %2, %_ZNSt16_Sp_counted_baseILN9__gnu_cxx12_Lock_policyE2EE10_M_releaseEv.exit.i.i.i
  ret ptr %0
}